target datalayout = "e-m:e-p270:32:32-p271:32:32-p272:64:64-i64:64-i128:128-f80:128-n8:16:32:64-S128"
target triple = "x86_64-unknown-linux-gnu"

%struct.alts_grpc_handshaker_client = type { %struct.alts_handshaker_client, %struct.gpr_refcount, ptr, ptr, ptr, %struct.grpc_closure, ptr, ptr, i8, %struct.grpc_metadata_array, ptr, ptr, ptr, %struct.grpc_slice, i8, %struct.grpc_slice, ptr, i64, %struct.grpc_closure, i32, %struct.grpc_slice, %"class.absl::lts_20230802::Mutex", i8, ptr, i64, ptr }
%struct.alts_handshaker_client = type { ptr }
%struct.gpr_refcount = type { i64 }
%struct.grpc_metadata_array = type { i64, i64, ptr }
%struct.grpc_closure = type { %union.anon, ptr, ptr, %union.anon.0 }
%union.anon = type { ptr }
%union.anon.0 = type { i64 }
%struct.grpc_slice = type { ptr, %"union.grpc_slice::grpc_slice_data" }
%"union.grpc_slice::grpc_slice_data" = type { %"struct.grpc_slice::grpc_slice_data::grpc_slice_refcounted", [8 x i8] }
%"struct.grpc_slice::grpc_slice_data::grpc_slice_refcounted" = type { i64, ptr }
%"class.absl::lts_20230802::Mutex" = type { %"struct.std::atomic" }
%"struct.std::atomic" = type { %"struct.std::__atomic_base" }
%"struct.std::__atomic_base" = type { i64 }

@.str = private unnamed_addr constant [142 x i8] c"generated/home/dtcxzyw/WorkSpace/Projects/compilers/llvm-opt-benchmark/bench/grpc/grpc/src/core/tsi/alts/handshaker/alts_handshaker_client.cc\00", align 1
@.str.1 = private unnamed_addr constant [13 x i8] c"c != nullptr\00", align 1

; Function Attrs: mustprogress uwtable
define void @_ZN9grpc_core8internal45alts_handshaker_client_set_fields_for_testingEP22alts_handshaker_clientP19alts_tsi_handshakerPFv10tsi_resultPvPKhmP21tsi_handshaker_resultES6_P16grpc_byte_bufferb(ptr noundef %c, ptr noundef %handshaker, ptr noundef %cb, ptr noundef %user_data, ptr noundef %recv_buffer, i1 noundef zeroext %inject_read_failure) #4 {
entry:
  %c.addr = alloca ptr, align 8
  %handshaker.addr = alloca ptr, align 8
  %cb.addr = alloca ptr, align 8
  %user_data.addr = alloca ptr, align 8
  %recv_buffer.addr = alloca ptr, align 8
  %inject_read_failure.addr = alloca i8, align 1
  %client = alloca ptr, align 8
  store ptr %c, ptr %c.addr, align 8
  store ptr %handshaker, ptr %handshaker.addr, align 8
  store ptr %cb, ptr %cb.addr, align 8
  store ptr %user_data, ptr %user_data.addr, align 8
  store ptr %recv_buffer, ptr %recv_buffer.addr, align 8
  %frombool = zext i1 %inject_read_failure to i8
  store i8 %frombool, ptr %inject_read_failure.addr, align 1
  br label %do.body

do.body:                                          ; preds = %entry
  %0 = load ptr, ptr %c.addr, align 8
  %cmp = icmp ne ptr %0, null
  %lnot = xor i1 %cmp, true
  br i1 %lnot, label %if.then, label %if.end

if.then:                                          ; preds = %do.body
  call void @gpr_assertion_failed(ptr noundef @.str, i32 noundef 803, ptr noundef @.str.1) #16
  unreachable

if.end:                                           ; preds = %do.body
  br label %do.end

do.end:                                           ; preds = %if.end
  %1 = load ptr, ptr %c.addr, align 8
  store ptr %1, ptr %client, align 8
  %2 = load ptr, ptr %handshaker.addr, align 8
  %3 = load ptr, ptr %client, align 8
  %handshaker1 = getelementptr inbounds %struct.alts_grpc_handshaker_client, ptr %3, i32 0, i32 2
  store ptr %2, ptr %handshaker1, align 8
  %4 = load ptr, ptr %cb.addr, align 8
  %5 = load ptr, ptr %client, align 8
  %cb2 = getelementptr inbounds %struct.alts_grpc_handshaker_client, ptr %5, i32 0, i32 10
  store ptr %4, ptr %cb2, align 8
  %6 = load ptr, ptr %user_data.addr, align 8
  %7 = load ptr, ptr %client, align 8
  %user_data3 = getelementptr inbounds %struct.alts_grpc_handshaker_client, ptr %7, i32 0, i32 11
  store ptr %6, ptr %user_data3, align 8
  %8 = load ptr, ptr %recv_buffer.addr, align 8
  %9 = load ptr, ptr %client, align 8
  %recv_buffer4 = getelementptr inbounds %struct.alts_grpc_handshaker_client, ptr %9, i32 0, i32 7
  store ptr %8, ptr %recv_buffer4, align 8
  %10 = load i8, ptr %inject_read_failure.addr, align 1
  %tobool = trunc i8 %10 to i1
  %11 = load ptr, ptr %client, align 8
  %inject_read_failure5 = getelementptr inbounds %struct.alts_grpc_handshaker_client, ptr %11, i32 0, i32 8
  %frombool6 = zext i1 %tobool to i8
  store i8 %frombool6, ptr %inject_read_failure5, align 8
  ret void
}