; Function Attrs: mustprogress uwtable
define void @_ZN9grpc_core8internal45alts_handshaker_client_set_fields_for_testingEP22alts_handshaker_clientP19alts_tsi_handshakerPFv10tsi_resultPvPKhmP21tsi_handshaker_resultES6_P16grpc_byte_bufferb(ptr noundef writeonly %c, ptr noundef %handshaker, ptr noundef %cb, ptr noundef %user_data, ptr noundef %recv_buffer, i1 noundef zeroext %inject_read_failure) local_unnamed_addr #3 {
entry:
  %cmp.not = icmp eq ptr %c, null
  br i1 %cmp.not, label %if.then, label %do.end

if.then:                                          ; preds = %entry
  tail call void @gpr_assertion_failed(ptr noundef nonnull @.str, i32 noundef 803, ptr noundef nonnull @.str.1) #17
  unreachable

do.end:                                           ; preds = %entry
  %frombool = zext i1 %inject_read_failure to i8
  %handshaker1 = getelementptr inbounds i8, ptr %c, i64 16
  store ptr %handshaker, ptr %handshaker1, align 8
  %cb2 = getelementptr inbounds i8, ptr %c, i64 120
  store ptr %cb, ptr %cb2, align 8
  %user_data3 = getelementptr inbounds i8, ptr %c, i64 128
  store ptr %user_data, ptr %user_data3, align 8
  %recv_buffer4 = getelementptr inbounds i8, ptr %c, i64 80
  store ptr %recv_buffer, ptr %recv_buffer4, align 8
  %inject_read_failure5 = getelementptr inbounds i8, ptr %c, i64 88
  store i8 %frombool, ptr %inject_read_failure5, align 8
  ret void
}